(dp0
S'METTS MARK'
p1
(dp2
S'to_messages'
p3
L807L
sS'deferral_payments'
p4
S'NaN'
p5
sS'combined_pay_and_stock'
p6
L1646889L
sS'expenses'
p7
L94299L
sS'poi'
p8
L0L
sS'deferred_income'
p9
g5
sS'email_address'
p10
S'mark.metts@enron.com'
p11
sS'long_term_incentive'
p12
g5
sS'restricted_stock_deferred'
p13
g5
sS'shared_receipt_with_poi'
p14
L702L
sS'loan_advances'
p15
g5
sS'from_messages'
p16
L29L
sS'other'
p17
L1740L
sS'director_fees'
p18
g5
sS'bonus'
p19
L600000L
sS'total_stock_value'
p20
L585062L
sS'from_poi_to_this_person'
p21
L38L
sS'from_this_person_to_poi'
p22
L1L
sS'restricted_stock'
p23
L585062L
sS'salary'
p24
L365788L
sS'total_payments'
p25
L1061827L
sS'proportion_pay_to_salary'
p26
L1L
sS'exercised_stock_options'
p27
g5
ssS'BAXTER JOHN C'
p28
(dp29
g3
g5
sg4
L1295738L
sg6
L16257601L
sg7
L11200L
sg8
L0L
sg9
L-1386055L
sg10
g5
sg12
L1586055L
sg13
g5
sg14
g5
sg15
g5
sg16
g5
sg17
L2660303L
sg18
g5
sg19
L1200000L
sg20
L10623258L
sg21
g5
sg22
g5
sg23
L3942714L
sg24
L267102L
sg25
L5634343L
sg26
L20L
sg27
L6680544L
ssS'ELLIOTT STEVEN'
p30
(dp31
g3
g5
sg4
g5
sg6
L6890460L
sg7
L78552L
sg8
L0L
sg9
L-400729L
sg10
S'steven.elliott@enron.com'
p32
sg12
g5
sg13
g5
sg14
g5
sg15
g5
sg16
g5
sg17
L12961L
sg18
g5
sg19
L350000L
sg20
L6678735L
sg21
g5
sg22
g5
sg23
L1788391L
sg24
L170941L
sg25
L211725L
sg26
L0L
sg27
L4890344L
ssS'CORDES WILLIAM R'
p33
(dp34
g3
L764L
sg4
g5
sg6
L1038185L
sg7
g5
sg8
L0L
sg9
g5
sg10
S'bill.cordes@enron.com'
p35
sg12
g5
sg13
g5
sg14
L58L
sg15
g5
sg16
L12L
sg17
g5
sg18
g5
sg19
g5
sg20
L1038185L
sg21
L10L
sg22
L0L
sg23
L386335L
sg24
g5
sg25
g5
sg26
S'NaN'
p36
sg27
L651850L
ssS'HANNON KEVIN P'
p37
(dp38
g3
L1045L
sg4
g5
sg6
L6679747L
sg7
L34039L
sg8
L1L
sg9
L-3117011L
sg10
S'kevin.hannon@enron.com'
p39
sg12
L1617011L
sg13
g5
sg14
L1035L
sg15
g5
sg16
L32L
sg17
L11350L
sg18
g5
sg19
L1500000L
sg20
L6391065L
sg21
L32L
sg22
L21L
sg23
L853064L
sg24
L243293L
sg25
L288682L
sg26
L0L
sg27
L5538001L
ssS'MORDAUNT KRISTINA M'
p40
(dp41
g3
g5
sg4
g5
sg6
L837032L
sg7
L35018L
sg8
L0L
sg9
g5
sg10
S'kristina.mordaunt@enron.com'
p42
sg12
g5
sg13
g5
sg14
g5
sg15
g5
sg16
g5
sg17
L1411L
sg18
g5
sg19
L325000L
sg20
L208510L
sg21
g5
sg22
g5
sg23
L208510L
sg24
L267093L
sg25
L628522L
sg26
L1L
sg27
g5
ssS'MEYER ROCKFORD G'
p43
(dp44
g3
L232L
sg4
L1848227L
sg6
L2804100L
sg7
g5
sg8
L0L
sg9
g5
sg10
S'rockford.meyer@enron.com'
p45
sg12
g5
sg13
g5
sg14
L22L
sg15
g5
sg16
L28L
sg17
g5
sg18
g5
sg19
g5
sg20
L955873L
sg21
L0L
sg22
L0L
sg23
L462384L
sg24
g5
sg25
L1848227L
sg26
g36
sg27
L493489L
ssS'MCMAHON JEFFREY'
p46
(dp47
g3
L2355L
sg4
g5
sg6
L5762626L
sg7
L137108L
sg8
L0L
sg9
g5
sg10
S'jeffrey.mcmahon@enron.com'
p48
sg12
L694862L
sg13
g5
sg14
L2228L
sg15
g5
sg16
L48L
sg17
L297353L
sg18
g5
sg19
L2600000L
sg20
L1662855L
sg21
L58L
sg22
L26L
sg23
L558801L
sg24
L370448L
sg25
L4099771L
sg26
L10L
sg27
L1104054L
ssS'HORTON STANLEY C'
p49
(dp50
g3
L2350L
sg4
L3131860L
sg6
L10388508L
sg7
g5
sg8
L0L
sg9
g5
sg10
S'stanley.horton@enron.com'
p51
sg12
g5
sg13
g5
sg14
L1074L
sg15
g5
sg16
L1073L
sg17
g5
sg18
g5
sg19
g5
sg20
L7256648L
sg21
L44L
sg22
L15L
sg23
L2046079L
sg24
g5
sg25
L3131860L
sg26
g36
sg27
L5210569L
ssS'PIPER GREGORY F'
p52
(dp53
g3
L1238L
sg4
L1130036L
sg6
L2617919L
sg7
L43057L
sg8
L0L
sg9
L-33333L
sg10
S'greg.piper@enron.com'
p54
sg12
g5
sg13
L-409554L
sg14
L742L
sg15
g5
sg16
L222L
sg17
L778L
sg18
g5
sg19
L400000L
sg20
L880290L
sg21
L61L
sg22
L48L
sg23
L409554L
sg24
L197091L
sg25
L1737629L
sg26
L7L
sg27
L880290L
ssS'HUMPHREY GENE E'
p55
(dp56
g3
L128L
sg4
L2964506L
sg6
L5382992L
sg7
L4994L
sg8
L0L
sg9
g5
sg10
S'gene.humphrey@enron.com'
p57
sg12
g5
sg13
g5
sg14
L119L
sg15
g5
sg16
L17L
sg17
g5
sg18
g5
sg19
g5
sg20
L2282768L
sg21
L10L
sg22
L17L
sg23
g5
sg24
L130724L
sg25
L3100224L
sg26
L22L
sg27
L2282768L
ssS'UMANOFF ADAM S'
p58
(dp59
g3
L111L
sg4
g5
sg6
L1130461L
sg7
L53122L
sg8
L0L
sg9
g5
sg10
S'adam.umanoff@enron.com'
p60
sg12
g5
sg13
g5
sg14
L41L
sg15
g5
sg16
L18L
sg17
g5
sg18
g5
sg19
L788750L
sg20
g5
sg21
L12L
sg22
L0L
sg23
g5
sg24
L288589L
sg25
L1130461L
sg26
L2L
sg27
g5
ssS'BLACHMAN JEREMY M'
p61
(dp62
g3
L2475L
sg4
g5
sg6
L2969189L
sg7
L84208L
sg8
L0L
sg9
g5
sg10
S'jeremy.blachman@enron.com'
p63
sg12
L831809L
sg13
g5
sg14
L2326L
sg15
g5
sg16
L14L
sg17
L272L
sg18
g5
sg19
L850000L
sg20
L954354L
sg21
L25L
sg22
L2L
sg23
L189041L
sg24
L248546L
sg25
L2014835L
sg26
L7L
sg27
L765313L
ssS'SUNDE MARTIN'
p64
(dp65
g3
L2647L
sg4
g5
sg6
L2243979L
sg7
g5
sg8
L0L
sg9
g5
sg10
S'marty.sunde@enron.com'
p66
sg12
L476451L
sg13
g5
sg14
L2565L
sg15
g5
sg16
L38L
sg17
L111122L
sg18
g5
sg19
L700000L
sg20
L698920L
sg21
L37L
sg22
L13L
sg23
L698920L
sg24
L257486L
sg25
L1545059L
sg26
L5L
sg27
g5
ssS'GIBBS DANA R'
p67
(dp68
g3
L169L
sg4
L504610L
sg6
L3184797L
sg7
g5
sg8
L0L
sg9
g5
sg10
S'dana.gibbs@enron.com'
p69
sg12
L461912L
sg13
g5
sg14
L23L
sg15
g5
sg16
L12L
sg17
g5
sg18
g5
sg19
g5
sg20
L2218275L
sg21
L0L
sg22
L0L
sg23
g5
sg24
g5
sg25
L966522L
sg26
g36
sg27
L2218275L
ssS'LOWRY CHARLES P'
p70
(dp71
g3
g5
sg4
g5
sg6
L372205L
sg7
g5
sg8
L0L
sg9
g5
sg10
g5
sg12
g5
sg13
L-153686L
sg14
g5
sg15
g5
sg16
g5
sg17
g5
sg18
g5
sg19
g5
sg20
L372205L
sg21
g5
sg22
g5
sg23
L153686L
sg24
g5
sg25
g5
sg26
g36
sg27
L372205L
ssS'COLWELL WESLEY'
p72
(dp73
g3
L1758L
sg4
L27610L
sg6
L2188586L
sg7
L16514L
sg8
L1L
sg9
L-144062L
sg10
S'wes.colwell@enron.com'
p74
sg12
g5
sg13
g5
sg14
L1132L
sg15
g5
sg16
L40L
sg17
L101740L
sg18
g5
sg19
L1200000L
sg20
L698242L
sg21
L240L
sg22
L11L
sg23
L698242L
sg24
L288542L
sg25
L1490344L
sg26
L4L
sg27
g5
ssS'MULLER MARK S'
p75
(dp76
g3
L136L
sg4
L842924L
sg6
L4618918L
sg7
g5
sg8
L0L
sg9
L-719000L
sg10
S's..muller@enron.com'
p77
sg12
L1725545L
sg13
g5
sg14
L114L
sg15
g5
sg16
L16L
sg17
L947L
sg18
g5
sg19
L1100000L
sg20
L1416848L
sg21
L12L
sg22
L0L
sg23
L360528L
sg24
L251654L
sg25
L3202070L
sg26
L11L
sg27
L1056320L
ssS'JACKSON CHARLENE R'
p78
(dp79
g3
L258L
sg4
g5
sg6
L1276909L
sg7
L10181L
sg8
L0L
sg9
g5
sg10
S'charlene.jackson@enron.com'
p80
sg12
g5
sg13
g5
sg14
L117L
sg15
g5
sg16
L56L
sg17
L2435L
sg18
g5
sg19
L250000L
sg20
L725735L
sg21
L25L
sg22
L19L
sg23
L540672L
sg24
L288558L
sg25
L551174L
sg26
L0L
sg27
L185063L
ssS'WESTFAHL RICHARD K'
p81
(dp82
g3
g5
sg4
g5
sg6
L1147065L
sg7
L51870L
sg8
L0L
sg9
L-10800L
sg10
S'dick.westfahl@enron.com'
p83
sg12
L256191L
sg13
g5
sg14
g5
sg15
g5
sg16
g5
sg17
L401130L
sg18
g5
sg19
g5
sg20
L384930L
sg21
g5
sg22
g5
sg23
L384930L
sg24
L63744L
sg25
L762135L
sg26
L10L
sg27
g5
ssS'WALTERS GARETH W'
p84
(dp85
g3
g5
sg4
L53625L
sg6
L1117739L
sg7
L33785L
sg8
L0L
sg9
g5
sg10
g5
sg12
g5
sg13
g5
sg14
g5
sg15
g5
sg16
g5
sg17
g5
sg18
g5
sg19
g5
sg20
L1030329L
sg21
g5
sg22
g5
sg23
g5
sg24
g5
sg25
L87410L
sg26
g36
sg27
L1030329L
ssS'WALLS JR ROBERT H'
p86
(dp87
g3
L671L
sg4
g5
sg6
L7697777L
sg7
L50936L
sg8
L0L
sg9
g5
sg10
S'rob.walls@enron.com'
p88
sg12
L540751L
sg13
g5
sg14
L215L
sg15
g5
sg16
L146L
sg17
L2L
sg18
g5
sg19
L850000L
sg20
L5898997L
sg21
L17L
sg22
L0L
sg23
L1552453L
sg24
L357091L
sg25
L1798780L
sg26
L4L
sg27
L4346544L
ssS'KITCHEN LOUISE'
p89
(dp90
g3
L8305L
sg4
g5
sg6
L4018284L
sg7
L5774L
sg8
L0L
sg9
g5
sg10
S'louise.kitchen@enron.com'
p91
sg12
g5
sg13
g5
sg14
L3669L
sg15
g5
sg16
L1728L
sg17
L93925L
sg18
g5
sg19
L3100000L
sg20
L547143L
sg21
L251L
sg22
L194L
sg23
L466101L
sg24
L271442L
sg25
L3471141L
sg26
L11L
sg27
L81042L
ssS'CHAN RONNIE'
p92
(dp93
g3
g5
sg4
g5
sg6
g5
sg7
g5
sg8
L0L
sg9
L-98784L
sg10
g5
sg12
g5
sg13
L-32460L
sg14
g5
sg15
g5
sg16
g5
sg17
g5
sg18
L98784L
sg19
g5
sg20
g5
sg21
g5
sg22
g5
sg23
L32460L
sg24
g5
sg25
g5
sg26
g36
sg27
g5
ssS'BELFER ROBERT'
p94
(dp95
g3
g5
sg4
L-102500L
sg6
L58407L
sg7
g5
sg8
L0L
sg9
g5
sg10
g5
sg12
g5
sg13
L44093L
sg14
g5
sg15
g5
sg16
g5
sg17
g5
sg18
L3285L
sg19
g5
sg20
L-44093L
sg21
g5
sg22
g5
sg23
g5
sg24
g5
sg25
L102500L
sg26
g36
sg27
L3285L
ssS'SHANKMAN JEFFREY A'
p96
(dp97
g3
L3221L
sg4
g5
sg6
L5110737L
sg7
L178979L
sg8
L0L
sg9
g5
sg10
S'jeffrey.shankman@enron.com'
p98
sg12
L554422L
sg13
g5
sg14
L1730L
sg15
g5
sg16
L2681L
sg17
L1191L
sg18
g5
sg19
L2000000L
sg20
L2072035L
sg21
L94L
sg22
L83L
sg23
L630137L
sg24
L304110L
sg25
L3038702L
sg26
L8L
sg27
L1441898L
ssS'WODRASKA JOHN'
p99
(dp100
g3
g5
sg4
g5
sg6
L189583L
sg7
g5
sg8
L0L
sg9
g5
sg10
S'john.wodraska@enron.com'
p101
sg12
g5
sg13
g5
sg14
g5
sg15
g5
sg16
g5
sg17
L189583L
sg18
g5
sg19
g5
sg20
g5
sg21
g5
sg22
g5
sg23
g5
sg24
g5
sg25
L189583L
sg26
g36
sg27
g5
ssS'BERGSIEKER RICHARD P'
p102
(dp103
g3
L383L
sg4
g5
sg6
L1278099L
sg7
L59175L
sg8
L0L
sg9
L-485813L
sg10
S'rick.bergsieker@enron.com'
p104
sg12
L180250L
sg13
g5
sg14
L233L
sg15
g5
sg16
L59L
sg17
L427316L
sg18
g5
sg19
L250000L
sg20
L659249L
sg21
L4L
sg22
L0L
sg23
L659249L
sg24
L187922L
sg25
L618850L
sg26
L2L
sg27
g5
ssS'URQUHART JOHN A'
p105
(dp106
g3
g5
sg4
g5
sg6
L228656L
sg7
L228656L
sg8
L0L
sg9
L-36666L
sg10
g5
sg12
g5
sg13
g5
sg14
g5
sg15
g5
sg16
g5
sg17
g5
sg18
L36666L
sg19
g5
sg20
g5
sg21
g5
sg22
g5
sg23
g5
sg24
g5
sg25
L228656L
sg26
g36
sg27
g5
ssS'BIBI PHILIPPE A'
p107
(dp108
g3
L1607L
sg4
g5
sg6
L3891409L
sg7
L38559L
sg8
L0L
sg9
g5
sg10
S'philippe.bibi@enron.com'
p109
sg12
L369721L
sg13
g5
sg14
L1336L
sg15
g5
sg16
L40L
sg17
L425688L
sg18
g5
sg19
L1000000L
sg20
L1843816L
sg21
L23L
sg22
L8L
sg23
L378082L
sg24
L213625L
sg25
L2047593L
sg26
L8L
sg27
L1465734L
ssS'RIEKER PAULA H'
p110
(dp111
g3
L1328L
sg4
L214678L
sg6
L3017987L
sg7
L33271L
sg8
L1L
sg9
L-100000L
sg10
S'paula.rieker@enron.com'
p112
sg12
g5
sg13
g5
sg14
L1258L
sg15
g5
sg16
L82L
sg17
L1950L
sg18
g5
sg19
L700000L
sg20
L1918887L
sg21
L35L
sg22
L48L
sg23
L283649L
sg24
L249201L
sg25
L1099100L
sg26
L3L
sg27
L1635238L
ssS'WHALEY DAVID A'
p113
(dp114
g3
g5
sg4
g5
sg6
L98718L
sg7
g5
sg8
L0L
sg9
g5
sg10
g5
sg12
g5
sg13
g5
sg14
g5
sg15
g5
sg16
g5
sg17
g5
sg18
g5
sg19
g5
sg20
L98718L
sg21
g5
sg22
g5
sg23
g5
sg24
g5
sg25
g5
sg26
g36
sg27
L98718L
ssS'BECK SALLY W'
p115
(dp116
g3
L7315L
sg4
g5
sg6
L1095095L
sg7
L37172L
sg8
L0L
sg9
g5
sg10
S'sally.beck@enron.com'
p117
sg12
g5
sg13
g5
sg14
L2639L
sg15
g5
sg16
L4343L
sg17
L566L
sg18
g5
sg19
L700000L
sg20
L126027L
sg21
L144L
sg22
L386L
sg23
L126027L
sg24
L231330L
sg25
L969068L
sg26
L3L
sg27
g5
ssS'HAUG DAVID L'
p118
(dp119
g3
L573L
sg4
g5
sg6
L2217774L
sg7
L475L
sg8
L0L
sg9
g5
sg10
S'david.haug@enron.com'
p120
sg12
g5
sg13
g5
sg14
L471L
sg15
g5
sg16
L19L
sg17
g5
sg18
g5
sg19
g5
sg20
L2217299L
sg21
L4L
sg22
L7L
sg23
L2217299L
sg24
g5
sg25
L475L
sg26
g36
sg27
g5
ssS'ECHOLS JOHN B'
p121
(dp122
g3
g5
sg4
g5
sg6
L3701265L
sg7
L21530L
sg8
L0L
sg9
g5
sg10
S'john.echols@enron.com'
p123
sg12
L2234774L
sg13
g5
sg14
g5
sg15
g5
sg16
g5
sg17
L53775L
sg18
g5
sg19
L200000L
sg20
L1008941L
sg21
g5
sg22
g5
sg23
L407503L
sg24
L182245L
sg25
L2692324L
sg26
L13L
sg27
L601438L
ssS'MENDELSOHN JOHN'
p124
(dp125
g3
g5
sg4
g5
sg6
L148L
sg7
L148L
sg8
L0L
sg9
L-103750L
sg10
g5
sg12
g5
sg13
g5
sg14
g5
sg15
g5
sg16
g5
sg17
g5
sg18
L103750L
sg19
g5
sg20
g5
sg21
g5
sg22
g5
sg23
g5
sg24
g5
sg25
L148L
sg26
g36
sg27
g5
ssS'HICKERSON GARY J'
p126
(dp127
g3
L1320L
sg4
g5
sg6
L2522892L
sg7
L98849L
sg8
L0L
sg9
g5
sg10
S'gary.hickerson@enron.com'
p128
sg12
L69223L
sg13
g5
sg14
L900L
sg15
g5
sg16
L27L
sg17
L1936L
sg18
g5
sg19
L1700000L
sg20
L441096L
sg21
L40L
sg22
L1L
sg23
L441096L
sg24
L211788L
sg25
L2081796L
sg26
L8L
sg27
g5
ssS'CLINE KENNETH W'
p129
(dp130
g3
g5
sg4
g5
sg6
L189518L
sg7
g5
sg8
L0L
sg9
g5
sg10
g5
sg12
g5
sg13
L-472568L
sg14
g5
sg15
g5
sg16
g5
sg17
g5
sg18
g5
sg19
g5
sg20
L189518L
sg21
g5
sg22
g5
sg23
L662086L
sg24
g5
sg25
g5
sg26
g36
sg27
g5
ssS'LEWIS RICHARD'
p131
(dp132
g3
L952L
sg4
g5
sg6
L850477L
sg7
g5
sg8
L0L
sg9
g5
sg10
S'richard.lewis@enron.com'
p133
sg12
g5
sg13
g5
sg14
L739L
sg15
g5
sg16
L26L
sg17
g5
sg18
g5
sg19
g5
sg20
L850477L
sg21
L10L
sg22
L0L
sg23
g5
sg24
g5
sg25
g5
sg26
g36
sg27
L850477L
ssS'HAYES ROBERT E'
p134
(dp135
g3
L504L
sg4
L7961L
sg6
L159379L
sg7
g5
sg8
L0L
sg9
g5
sg10
S'robert.hayes@enron.com'
p136
sg12
g5
sg13
g5
sg14
L50L
sg15
g5
sg16
L12L
sg17
g5
sg18
g5
sg19
g5
sg20
L151418L
sg21
L16L
sg22
L0L
sg23
L151418L
sg24
g5
sg25
L7961L
sg26
g36
sg27
g5
ssS'MCCARTY DANNY J'
p137
(dp138
g3
L1433L
sg4
g5
sg6
L758931L
sg7
g5
sg8
L0L
sg9
g5
sg10
S'danny.mccarty@enron.com'
p139
sg12
g5
sg13
g5
sg14
L508L
sg15
g5
sg16
L215L
sg17
g5
sg18
g5
sg19
g5
sg20
L758931L
sg21
L25L
sg22
L2L
sg23
L94556L
sg24
g5
sg25
g5
sg26
g36
sg27
L664375L
ssS'KOPPER MICHAEL J'
p140
(dp141
g3
g5
sg4
g5
sg6
L3637644L
sg7
L118134L
sg8
L1L
sg9
g5
sg10
S'michael.kopper@enron.com'
p142
sg12
L602671L
sg13
g5
sg14
g5
sg15
g5
sg16
g5
sg17
L907502L
sg18
g5
sg19
L800000L
sg20
L985032L
sg21
g5
sg22
g5
sg23
L985032L
sg24
L224305L
sg25
L2652612L
sg26
L10L
sg27
g5
ssS'LEFF DANIEL P'
p143
(dp144
g3
L2822L
sg4
g5
sg6
L3024756L
sg7
g5
sg8
L0L
sg9
g5
sg10
S'dan.leff@enron.com'
p145
sg12
L1387399L
sg13
g5
sg14
L2672L
sg15
g5
sg16
L63L
sg17
L3083L
sg18
g5
sg19
L1000000L
sg20
L360528L
sg21
L67L
sg22
L14L
sg23
L360528L
sg24
L273746L
sg25
L2664228L
sg26
L8L
sg27
g5
ssS'LAVORATO JOHN J'
p146
(dp147
g3
L7259L
sg4
g5
sg6
L15592901L
sg7
L49537L
sg8
L0L
sg9
g5
sg10
S'john.lavorato@enron.com'
p148
sg12
L2035380L
sg13
g5
sg14
L3962L
sg15
g5
sg16
L2585L
sg17
L1552L
sg18
g5
sg19
L8000000L
sg20
L5167144L
sg21
L528L
sg22
L411L
sg23
L1008149L
sg24
L339288L
sg25
L10425757L
sg26
L29L
sg27
L4158995L
ssS'BERBERIAN DAVID'
p149
(dp150
g3
g5
sg4
g5
sg6
L2722090L
sg7
L11892L
sg8
L0L
sg9
g5
sg10
S'david.berberian@enron.com'
p151
sg12
g5
sg13
g5
sg14
g5
sg15
g5
sg16
g5
sg17
g5
sg18
g5
sg19
g5
sg20
L2493616L
sg21
g5
sg22
g5
sg23
L869220L
sg24
L216582L
sg25
L228474L
sg26
L0L
sg27
L1624396L
ssS'DETMERING TIMOTHY J'
p152
(dp153
g3
g5
sg4
L875307L
sg6
L3232448L
sg7
L52255L
sg8
L0L
sg9
L-775241L
sg10
S'timothy.detmering@enron.com'
p154
sg12
L415657L
sg13
L-315068L
sg14
g5
sg15
g5
sg16
g5
sg17
L1105L
sg18
g5
sg19
L425000L
sg20
L2027865L
sg21
g5
sg22
g5
sg23
L315068L
sg24
L210500L
sg25
L1204583L
sg26
L4L
sg27
L2027865L
ssS'WAKEHAM JOHN'
p155
(dp156
g3
g5
sg4
g5
sg6
L213071L
sg7
L103773L
sg8
L0L
sg9
g5
sg10
g5
sg12
g5
sg13
g5
sg14
g5
sg15
g5
sg16
g5
sg17
g5
sg18
L109298L
sg19
g5
sg20
g5
sg21
g5
sg22
g5
sg23
g5
sg24
g5
sg25
L213071L
sg26
g36
sg27
g5
ssS'POWERS WILLIAM'
p157
(dp158
g3
L653L
sg4
g5
sg6
g5
sg7
g5
sg8
L0L
sg9
L-17500L
sg10
S'ken.powers@enron.com'
p159
sg12
g5
sg13
g5
sg14
L12L
sg15
g5
sg16
L26L
sg17
g5
sg18
L17500L
sg19
g5
sg20
g5
sg21
L0L
sg22
L0L
sg23
g5
sg24
g5
sg25
g5
sg26
g36
sg27
g5
ssS'GOLD JOSEPH'
p160
(dp161
g3
g5
sg4
g5
sg6
L3024584L
sg7
g5
sg8
L0L
sg9
g5
sg10
S'joe.gold@enron.com'
p162
sg12
L304805L
sg13
g5
sg14
g5
sg15
g5
sg16
g5
sg17
L819288L
sg18
g5
sg19
L750000L
sg20
L877611L
sg21
g5
sg22
g5
sg23
L441096L
sg24
L272880L
sg25
L2146973L
sg26
L6L
sg27
L436515L
ssS'BANNANTINE JAMES M'
p163
(dp164
g3
L566L
sg4
g5
sg6
L6159684L
sg7
L56301L
sg8
L0L
sg9
L-5104L
sg10
S'james.bannantine@enron.com'
p165
sg12
g5
sg13
L-560222L
sg14
L465L
sg15
g5
sg16
L29L
sg17
L864523L
sg18
g5
sg19
g5
sg20
L5243487L
sg21
L39L
sg22
L0L
sg23
L1757552L
sg24
L477L
sg25
L916197L
sg26
L1919L
sg27
L4046157L
ssS'DUNCAN JOHN H'
p166
(dp167
g3
g5
sg4
g5
sg6
L449242L
sg7
g5
sg8
L0L
sg9
L-25000L
sg10
g5
sg12
g5
sg13
g5
sg14
g5
sg15
g5
sg16
g5
sg17
g5
sg18
L102492L
sg19
g5
sg20
L371750L
sg21
g5
sg22
g5
sg23
g5
sg24
g5
sg25
L77492L
sg26
g36
sg27
L371750L
ssS'SHAPIRO RICHARD S'
p168
(dp169
g3
L15149L
sg4
g5
sg6
L2044549L
sg7
L137767L
sg8
L0L
sg9
g5
sg10
S'richard.shapiro@enron.com'
p170
sg12
g5
sg13
g5
sg14
L4527L
sg15
g5
sg16
L1215L
sg17
L705L
sg18
g5
sg19
L650000L
sg20
L987001L
sg21
L74L
sg22
L65L
sg23
L379164L
sg24
L269076L
sg25
L1057548L
sg26
L2L
sg27
L607837L
ssS'SHERRIFF JOHN R'
p171
(dp172
g3
L3187L
sg4
g5
sg6
L7464370L
sg7
g5
sg8
L0L
sg9
g5
sg10
S'john.sherriff@enron.com'
p173
sg12
L554422L
sg13
g5
sg14
L2103L
sg15
g5
sg16
L92L
sg17
L1852186L
sg18
g5
sg19
L1500000L
sg20
L3128982L
sg21
L28L
sg22
L23L
sg23
L1293424L
sg24
L428780L
sg25
L4335388L
sg26
L9L
sg27
L1835558L
ssS'SHELBY REX'
p174
(dp175
g3
L225L
sg4
g5
sg6
L4497501L
sg7
L22884L
sg8
L1L
sg9
L-4167L
sg10
S'rex.shelby@enron.com'
p176
sg12
g5
sg13
g5
sg14
L91L
sg15
g5
sg16
L39L
sg17
L1573324L
sg18
g5
sg19
L200000L
sg20
L2493616L
sg21
L13L
sg22
L14L
sg23
L869220L
sg24
L211844L
sg25
L2003885L
sg26
L8L
sg27
L1624396L
ssS'LEMAISTRE CHARLES'
p177
(dp178
g3
g5
sg4
g5
sg6
L500370L
sg7
g5
sg8
L0L
sg9
L-25000L
sg10
g5
sg12
g5
sg13
g5
sg14
g5
sg15
g5
sg16
g5
sg17
g5
sg18
L112492L
sg19
g5
sg20
L412878L
sg21
g5
sg22
g5
sg23
g5
sg24
g5
sg25
L87492L
sg26
g36
sg27
L412878L
ssS'DEFFNER JOSEPH M'
p179
(dp180
g3
L714L
sg4
g5
sg6
L1367860L
sg7
L41626L
sg8
L0L
sg9
g5
sg10
S'joseph.deffner@enron.com'
p181
sg12
L335349L
sg13
g5
sg14
L552L
sg15
g5
sg16
L74L
sg17
L25553L
sg18
g5
sg19
L600000L
sg20
L159211L
sg21
L115L
sg22
L4L
sg23
L141833L
sg24
L206121L
sg25
L1208649L
sg26
L4L
sg27
L17378L
ssS'KISHKILL JOSEPH G'
p182
(dp183
g3
g5
sg4
g5
sg6
L1739242L
sg7
L116335L
sg8
L0L
sg9
L-51042L
sg10
S'joe.kishkill@enron.com'
p184
sg12
g5
sg13
g5
sg14
g5
sg15
g5
sg16
g5
sg17
L465357L
sg18
g5
sg19
g5
sg20
L1034346L
sg21
g5
sg22
g5
sg23
L1034346L
sg24
L174246L
sg25
L704896L
sg26
L3L
sg27
g5
ssS'WHALLEY LAWRENCE G'
p185
(dp186
g3
L6019L
sg4
g5
sg6
L10756711L
sg7
L57838L
sg8
L0L
sg9
g5
sg10
S'greg.whalley@enron.com'
p187
sg12
L808346L
sg13
g5
sg14
L3920L
sg15
g5
sg16
L556L
sg17
L301026L
sg18
g5
sg19
L3000000L
sg20
L6079137L
sg21
L186L
sg22
L24L
sg23
L2796177L
sg24
L510364L
sg25
L4677574L
sg26
L8L
sg27
L3282960L
ssS'MCCONNELL MICHAEL S'
p188
(dp189
g3
L3329L
sg4
g5
sg6
L5202643L
sg7
L81364L
sg8
L0L
sg9
g5
sg10
S'mike.mcconnell@enron.com'
p190
sg12
L554422L
sg13
g5
sg14
L2189L
sg15
g5
sg16
L2742L
sg17
L540L
sg18
g5
sg19
L1100000L
sg20
L3101279L
sg21
L92L
sg22
L194L
sg23
L1478269L
sg24
L365038L
sg25
L2101364L
sg26
L4L
sg27
L1623010L
ssS'PIRO JIM'
p191
(dp192
g3
L58L
sg4
g5
sg6
L47304L
sg7
g5
sg8
L0L
sg9
g5
sg10
S'jim.piro@enron.com'
p193
sg12
g5
sg13
g5
sg14
L3L
sg15
g5
sg16
L16L
sg17
g5
sg18
g5
sg19
g5
sg20
L47304L
sg21
L0L
sg22
L1L
sg23
L47304L
sg24
g5
sg25
g5
sg26
g36
sg27
g5
ssS'DELAINEY DAVID W'
p194
(dp195
g3
L3093L
sg4
g5
sg6
L8362240L
sg7
L86174L
sg8
L1L
sg9
g5
sg10
S'david.delainey@enron.com'
p196
sg12
L1294981L
sg13
g5
sg14
L2097L
sg15
g5
sg16
L3069L
sg17
L1661L
sg18
g5
sg19
L3000000L
sg20
L3614261L
sg21
L66L
sg22
L609L
sg23
L1323148L
sg24
L365163L
sg25
L4747979L
sg26
L12L
sg27
L2291113L
ssS'SULLIVAN-SHAKLOVITZ COLLEEN'
p197
(dp198
g3
g5
sg4
L181993L
sg6
L2361731L
sg7
g5
sg8
L0L
sg9
g5
sg10
g5
sg12
L554422L
sg13
g5
sg14
g5
sg15
g5
sg16
g5
sg17
L162L
sg18
g5
sg19
L100000L
sg20
L1362375L
sg21
g5
sg22
g5
sg23
g5
sg24
L162779L
sg25
L999356L
sg26
L5L
sg27
L1362375L
ssS'WROBEL BRUCE'
p199
(dp200
g3
g5
sg4
g5
sg6
L139130L
sg7
g5
sg8
L0L
sg9
g5
sg10
g5
sg12
g5
sg13
g5
sg14
g5
sg15
g5
sg16
g5
sg17
g5
sg18
g5
sg19
g5
sg20
L139130L
sg21
g5
sg22
g5
sg23
g5
sg24
g5
sg25
g5
sg26
g36
sg27
L139130L
ssS'LINDHOLM TOD A'
p201
(dp202
g3
g5
sg4
L204075L
sg6
L3940097L
sg7
L57727L
sg8
L0L
sg9
g5
sg10
S'tod.lindholm@enron.com'
p203
sg12
L175000L
sg13
g5
sg14
g5
sg15
g5
sg16
g5
sg17
L2630L
sg18
g5
sg19
L200000L
sg20
L3064208L
sg21
g5
sg22
g5
sg23
L514847L
sg24
L236457L
sg25
L875889L
sg26
L2L
sg27
L2549361L
ssS'MEYER JEROME J'
p204
(dp205
g3
g5
sg4
g5
sg6
L2151L
sg7
L2151L
sg8
L0L
sg9
L-38346L
sg10
g5
sg12
g5
sg13
g5
sg14
g5
sg15
g5
sg16
g5
sg17
g5
sg18
L38346L
sg19
g5
sg20
g5
sg21
g5
sg22
g5
sg23
g5
sg24
g5
sg25
L2151L
sg26
g36
sg27
g5
ssS'LAY KENNETH L'
p206
(dp207
g3
L4273L
sg4
L202911L
sg6
L152669871L
sg7
L99832L
sg8
L1L
sg9
L-300000L
sg10
S'kenneth.lay@enron.com'
p208
sg12
L3600000L
sg13
g5
sg14
L2411L
sg15
L81525000L
sg16
L36L
sg17
L10359729L
sg18
g5
sg19
L7000000L
sg20
L49110078L
sg21
L123L
sg22
L16L
sg23
L14761694L
sg24
L1072321L
sg25
L103559793L
sg26
L95L
sg27
L34348384L
ssS'BUTTS ROBERT H'
p209
(dp210
g3
g5
sg4
g5
sg6
L1689201L
sg7
L9410L
sg8
L0L
sg9
L-75000L
sg10
S'bob.butts@enron.com'
p211
sg12
L175000L
sg13
g5
sg14
g5
sg15
g5
sg16
g5
sg17
L150656L
sg18
g5
sg19
L750000L
sg20
L417619L
sg21
g5
sg22
g5
sg23
L417619L
sg24
L261516L
sg25
L1271582L
sg26
L3L
sg27
g5
ssS'OLSON CINDY K'
p212
(dp213
g3
L1184L
sg4
L77716L
sg6
L3928320L
sg7
L63791L
sg8
L0L
sg9
g5
sg10
S'cindy.olson@enron.com'
p214
sg12
L100000L
sg13
g5
sg14
L856L
sg15
g5
sg16
L52L
sg17
L972L
sg18
g5
sg19
L750000L
sg20
L2606763L
sg21
L20L
sg22
L15L
sg23
L969729L
sg24
L329078L
sg25
L1321557L
sg26
L3L
sg27
L1637034L
ssS'MCDONALD REBECCA'
p215
(dp216
g3
L894L
sg4
g5
sg6
L1691366L
sg7
g5
sg8
L0L
sg9
g5
sg10
S'rebecca.mcdonald@enron.com'
p217
sg12
g5
sg13
g5
sg14
L720L
sg15
g5
sg16
L13L
sg17
g5
sg18
g5
sg19
g5
sg20
L1691366L
sg21
L54L
sg22
L1L
sg23
L934065L
sg24
g5
sg25
g5
sg26
g36
sg27
L757301L
ssS'CUMBERLAND MICHAEL S'
p218
(dp219
g3
g5
sg4
g5
sg6
L1015896L
sg7
L22344L
sg8
L0L
sg9
g5
sg10
g5
sg12
L275000L
sg13
g5
sg14
g5
sg15
g5
sg16
g5
sg17
L713L
sg18
g5
sg19
L325000L
sg20
L207940L
sg21
g5
sg22
g5
sg23
L207940L
sg24
L184899L
sg25
L807956L
sg26
L3L
sg27
g5
ssS'GAHN ROBERT S'
p220
(dp221
g3
g5
sg4
L73122L
sg6
L1219192L
sg7
L50080L
sg8
L0L
sg9
L-1042L
sg10
g5
sg12
g5
sg13
g5
sg14
g5
sg15
g5
sg16
g5
sg17
L76547L
sg18
g5
sg19
L509870L
sg20
L318607L
sg21
g5
sg22
g5
sg23
L235370L
sg24
L192008L
sg25
L900585L
sg26
L3L
sg27
L83237L
ssS'MCCLELLAN GEORGE'
p222
(dp223
g3
L1744L
sg4
g5
sg6
L2266624L
sg7
L228763L
sg8
L0L
sg9
L-125000L
sg10
S'george.mcclellan@enron.com'
p224
sg12
g5
sg13
g5
sg14
L1469L
sg15
g5
sg16
L49L
sg17
L51587L
sg18
g5
sg19
L900000L
sg20
L947861L
sg21
L52L
sg22
L0L
sg23
L441096L
sg24
L263413L
sg25
L1318763L
sg26
L4L
sg27
L506765L
ssS'HERMANN ROBERT J'
p225
(dp226
g3
g5
sg4
g5
sg6
L1965593L
sg7
L48357L
sg8
L0L
sg9
L-280000L
sg10
S'robert.hermann@enron.com'
p227
sg12
L150000L
sg13
g5
sg14
g5
sg15
g5
sg16
g5
sg17
L416441L
sg18
g5
sg19
L700000L
sg20
L668132L
sg21
g5
sg22
g5
sg23
L480632L
sg24
L262663L
sg25
L1297461L
sg26
L3L
sg27
L187500L
ssS'SCRIMSHAW MATTHEW'
p228
(dp229
g3
g5
sg4
g5
sg6
L759557L
sg7
g5
sg8
L0L
sg9
g5
sg10
S'matthew.scrimshaw@enron.com'
p230
sg12
g5
sg13
g5
sg14
g5
sg15
g5
sg16
g5
sg17
g5
sg18
g5
sg19
g5
sg20
L759557L
sg21
g5
sg22
g5
sg23
g5
sg24
g5
sg25
g5
sg26
g36
sg27
L759557L
ssS'GATHMANN WILLIAM D'
p231
(dp232
g3
g5
sg4
g5
sg6
L1945360L
sg7
g5
sg8
L0L
sg9
g5
sg10
g5
sg12
g5
sg13
L-72419L
sg14
g5
sg15
g5
sg16
g5
sg17
g5
sg18
g5
sg19
g5
sg20
L1945360L
sg21
g5
sg22
g5
sg23
L264013L
sg24
g5
sg25
g5
sg26
g36
sg27
L1753766L
ssS'HAEDICKE MARK E'
p233
(dp234
g3
L4009L
sg4
L2157527L
sg6
L4662159L
sg7
L76169L
sg8
L0L
sg9
L-934484L
sg10
S'mark.haedicke@enron.com'
p235
sg12
L983346L
sg13
L-329825L
sg14
L1847L
sg15
g5
sg16
L1941L
sg17
L52382L
sg18
g5
sg19
L1150000L
sg20
L803094L
sg21
L180L
sg22
L61L
sg23
L524169L
sg24
L374125L
sg25
L3859065L
sg26
L9L
sg27
L608750L
ssS'BOWEN JR RAYMOND M'
p236
(dp237
g3
L1858L
sg4
g5
sg6
L2921644L
sg7
L65907L
sg8
L1L
sg9
L-833L
sg10
S'raymond.bowen@enron.com'
p238
sg12
L974293L
sg13
g5
sg14
L1593L
sg15
g5
sg16
L27L
sg17
L1621L
sg18
g5
sg19
L1350000L
sg20
L252055L
sg21
L140L
sg22
L15L
sg23
L252055L
sg24
L278601L
sg25
L2669589L
sg26
L8L
sg27
g5
ssS'GILLIS JOHN'
p239
(dp240
g3
g5
sg4
g5
sg6
L85641L
sg7
g5
sg8
L0L
sg9
g5
sg10
g5
sg12
g5
sg13
g5
sg14
g5
sg15
g5
sg16
g5
sg17
g5
sg18
g5
sg19
g5
sg20
L85641L
sg21
g5
sg22
g5
sg23
L75838L
sg24
g5
sg25
g5
sg26
g36
sg27
L9803L
ssS'FITZGERALD JAY L'
p241
(dp242
g3
L936L
sg4
g5
sg6
L3036093L
sg7
L23870L
sg8
L0L
sg9
g5
sg10
S'jay.fitzgerald@enron.com'
p243
sg12
L556416L
sg13
g5
sg14
L723L
sg15
g5
sg16
L16L
sg17
L285414L
sg18
g5
sg19
L350000L
sg20
L1621236L
sg21
L1L
sg22
L8L
sg23
L956775L
sg24
L199157L
sg25
L1414857L
sg26
L6L
sg27
L664461L
ssS'MORAN MICHAEL P'
p244
(dp245
g3
L672L
sg4
g5
sg6
L221141L
sg7
g5
sg8
L0L
sg9
g5
sg10
S'michael.moran@enron.com'
p246
sg12
g5
sg13
g5
sg14
L127L
sg15
g5
sg16
L19L
sg17
g5
sg18
g5
sg19
g5
sg20
L221141L
sg21
L0L
sg22
L0L
sg23
L161602L
sg24
g5
sg25
g5
sg26
g36
sg27
L59539L
ssS'REDMOND BRIAN L'
p247
(dp248
g3
L1671L
sg4
g5
sg6
L8001853L
sg7
L14689L
sg8
L0L
sg9
g5
sg10
S'brian.redmond@enron.com'
p249
sg12
g5
sg13
g5
sg14
L1063L
sg15
g5
sg16
L221L
sg17
g5
sg18
g5
sg19
g5
sg20
L7890324L
sg21
L204L
sg22
L49L
sg23
L381285L
sg24
L96840L
sg25
L111529L
sg26
L0L
sg27
L7509039L
ssS'BAZELIDES PHILIP J'
p250
(dp251
g3
g5
sg4
L684694L
sg6
L2459777L
sg7
g5
sg8
L0L
sg9
g5
sg10
g5
sg12
L93750L
sg13
g5
sg14
g5
sg15
g5
sg16
g5
sg17
L874L
sg18
g5
sg19
g5
sg20
L1599641L
sg21
g5
sg22
g5
sg23
g5
sg24
L80818L
sg25
L860136L
sg26
L9L
sg27
L1599641L
ssS'BELDEN TIMOTHY N'
p252
(dp253
g3
L7991L
sg4
L2144013L
sg6
L6612335L
sg7
L17355L
sg8
L1L
sg9
L-2334434L
sg10
S'tim.belden@enron.com'
p254
sg12
g5
sg13
g5
sg14
L5521L
sg15
g5
sg16
L484L
sg17
L210698L
sg18
g5
sg19
L5249999L
sg20
L1110705L
sg21
L228L
sg22
L108L
sg23
L157569L
sg24
L213999L
sg25
L5501630L
sg26
L24L
sg27
L953136L
ssS'DURAN WILLIAM D'
p255
(dp256
g3
L904L
sg4
g5
sg6
L3734173L
sg7
L25785L
sg8
L0L
sg9
g5
sg10
S'w.duran@enron.com'
p257
sg12
L1105218L
sg13
g5
sg14
L599L
sg15
g5
sg16
L12L
sg17
L1568L
sg18
g5
sg19
L750000L
sg20
L1640910L
sg21
L106L
sg22
L3L
sg23
L189041L
sg24
L210692L
sg25
L2093263L
sg26
L8L
sg27
L1451869L
ssS'THORN TERENCE H'
p258
(dp259
g3
L266L
sg4
L16586L
sg6
L5729249L
sg7
L46145L
sg8
L0L
sg9
g5
sg10
S'terence.thorn@enron.com'
p260
sg12
L200000L
sg13
g5
sg14
L73L
sg15
g5
sg16
L41L
sg17
L426629L
sg18
g5
sg19
g5
sg20
L4817796L
sg21
L0L
sg22
L0L
sg23
L365320L
sg24
L222093L
sg25
L911453L
sg26
L3L
sg27
L4452476L
ssS'FASTOW ANDREW S'
p261
(dp262
g3
g5
sg4
g5
sg6
L4218495L
sg7
L55921L
sg8
L1L
sg9
L-1386055L
sg10
S'andrew.fastow@enron.com'
p263
sg12
L1736055L
sg13
g5
sg14
g5
sg15
g5
sg16
g5
sg17
L277464L
sg18
g5
sg19
L1300000L
sg20
L1794412L
sg21
g5
sg22
g5
sg23
L1794412L
sg24
L440698L
sg25
L2424083L
sg26
L4L
sg27
g5
ssS'FOY JOE'
p264
(dp265
g3
L57L
sg4
L181755L
sg6
L525189L
sg7
g5
sg8
L0L
sg9
g5
sg10
S'tracy.foy@enron.com'
p266
sg12
g5
sg13
g5
sg14
L2L
sg15
g5
sg16
L13L
sg17
g5
sg18
g5
sg19
g5
sg20
L343434L
sg21
L0L
sg22
L0L
sg23
g5
sg24
g5
sg25
L181755L
sg26
g36
sg27
L343434L
ssS'CALGER CHRISTOPHER F'
p267
(dp268
g3
L2598L
sg4
g5
sg6
L1765324L
sg7
L35818L
sg8
L1L
sg9
L-262500L
sg10
S'christopher.calger@enron.com'
p269
sg12
L375304L
sg13
g5
sg14
L2188L
sg15
g5
sg16
L144L
sg17
L486L
sg18
g5
sg19
L1250000L
sg20
L126027L
sg21
L199L
sg22
L25L
sg23
L126027L
sg24
L240189L
sg25
L1639297L
sg26
L5L
sg27
g5
ssS'RICE KENNETH D'
p270
(dp271
g3
L905L
sg4
g5
sg6
L23047589L
sg7
L46950L
sg8
L1L
sg9
L-3504386L
sg10
S'ken.rice@enron.com'
p272
sg12
L1617011L
sg13
g5
sg14
L864L
sg15
g5
sg16
L18L
sg17
L174839L
sg18
g5
sg19
L1750000L
sg20
L22542539L
sg21
L42L
sg22
L4L
sg23
L2748364L
sg24
L420636L
sg25
L505050L
sg26
L0L
sg27
L19794175L
ssS'KAMINSKI WINCENTY J'
p273
(dp274
g3
L4607L
sg4
g5
sg6
L2062858L
sg7
L83585L
sg8
L0L
sg9
g5
sg10
S'vince.kaminski@enron.com'
p275
sg12
L323466L
sg13
g5
sg14
L583L
sg15
g5
sg16
L14368L
sg17
L4669L
sg18
g5
sg19
L400000L
sg20
L976037L
sg21
L41L
sg22
L171L
sg23
L126027L
sg24
L275101L
sg25
L1086821L
sg26
L2L
sg27
L850010L
ssS'LOCKHART EUGENE E'
p276
(dp277
g3
g5
sg4
g5
sg6
g5
sg7
g5
sg8
L0L
sg9
g5
sg10
g5
sg12
g5
sg13
g5
sg14
g5
sg15
g5
sg16
g5
sg17
g5
sg18
g5
sg19
g5
sg20
g5
sg21
g5
sg22
g5
sg23
g5
sg24
g5
sg25
g5
sg26
g36
sg27
g5
ssS'COX DAVID'
p278
(dp279
g3
L102L
sg4
g5
sg6
L1597026L
sg7
L27861L
sg8
L0L
sg9
L-41250L
sg10
S'chip.cox@enron.com'
p280
sg12
g5
sg13
g5
sg14
L71L
sg15
g5
sg16
L33L
sg17
L494L
sg18
g5
sg19
L800000L
sg20
L495633L
sg21
L0L
sg22
L4L
sg23
L378082L
sg24
L314288L
sg25
L1101393L
sg26
L2L
sg27
L117551L
ssS'OVERDYKE JR JERE C'
p281
(dp282
g3
g5
sg4
g5
sg6
L7557381L
sg7
L18834L
sg8
L0L
sg9
g5
sg10
S'jere.overdyke@enron.com'
p283
sg12
L135836L
sg13
g5
sg14
g5
sg15
g5
sg16
g5
sg17
L176L
sg18
g5
sg19
g5
sg20
L7307594L
sg21
g5
sg22
g5
sg23
L2041016L
sg24
L94941L
sg25
L249787L
sg26
L1L
sg27
L5266578L
ssS'PEREIRA PAULO V. FERRAZ'
p284
(dp285
g3
g5
sg4
g5
sg6
L27942L
sg7
L27942L
sg8
L0L
sg9
L-101250L
sg10
g5
sg12
g5
sg13
g5
sg14
g5
sg15
g5
sg16
g5
sg17
g5
sg18
L101250L
sg19
g5
sg20
g5
sg21
g5
sg22
g5
sg23
g5
sg24
g5
sg25
L27942L
sg26
g36
sg27
g5
ssS'STABLER FRANK'
p286
(dp287
g3
g5
sg4
g5
sg6
L1623821L
sg7
L16514L
sg8
L0L
sg9
g5
sg10
S'frank.stabler@enron.com'
p288
sg12
g5
sg13
g5
sg14
g5
sg15
g5
sg16
g5
sg17
L356071L
sg18
g5
sg19
L500000L
sg20
L511734L
sg21
g5
sg22
g5
sg23
L511734L
sg24
L239502L
sg25
L1112087L
sg26
L3L
sg27
g5
ssS'SKILLING JEFFREY K'
p289
(dp290
g3
L3627L
sg4
g5
sg6
L34776388L
sg7
L29336L
sg8
L1L
sg9
g5
sg10
S'jeff.skilling@enron.com'
p291
sg12
L1920000L
sg13
g5
sg14
L2042L
sg15
g5
sg16
L108L
sg17
L22122L
sg18
g5
sg19
L5600000L
sg20
L26093672L
sg21
L88L
sg22
L30L
sg23
L6843672L
sg24
L1111258L
sg25
L8682716L
sg26
L6L
sg27
L19250000L
ssS'BLAKE JR. NORMAN P'
p292
(dp293
g3
g5
sg4
g5
sg6
L1279L
sg7
L1279L
sg8
L0L
sg9
L-113784L
sg10
g5
sg12
g5
sg13
g5
sg14
g5
sg15
g5
sg16
g5
sg17
g5
sg18
L113784L
sg19
g5
sg20
g5
sg21
g5
sg22
g5
sg23
g5
sg24
g5
sg25
L1279L
sg26
g36
sg27
g5
ssS'SHERRICK JEFFREY B'
p294
(dp295
g3
L613L
sg4
g5
sg6
L1832468L
sg7
g5
sg8
L0L
sg9
g5
sg10
S'jeffrey.sherrick@enron.com'
p296
sg12
g5
sg13
g5
sg14
L583L
sg15
g5
sg16
L25L
sg17
g5
sg18
g5
sg19
g5
sg20
L1832468L
sg21
L39L
sg22
L18L
sg23
L405999L
sg24
g5
sg25
g5
sg26
g36
sg27
L1426469L
ssS'PRENTICE JAMES'
p297
(dp298
g3
g5
sg4
L564348L
sg6
L1659388L
sg7
g5
sg8
L0L
sg9
g5
sg10
S'james.prentice@enron.com'
p299
sg12
g5
sg13
g5
sg14
g5
sg15
g5
sg16
g5
sg17
g5
sg18
g5
sg19
g5
sg20
L1095040L
sg21
g5
sg22
g5
sg23
L208809L
sg24
g5
sg25
L564348L
sg26
g36
sg27
L886231L
ssS'GRAY RODNEY'
p300
(dp301
g3
g5
sg4
L93585L
sg6
L1146658L
sg7
g5
sg8
L0L
sg9
g5
sg10
g5
sg12
L365625L
sg13
g5
sg14
g5
sg15
g5
sg16
g5
sg17
L680833L
sg18
g5
sg19
g5
sg20
g5
sg21
g5
sg22
g5
sg23
g5
sg24
L6615L
sg25
L1146658L
sg26
L172L
sg27
g5
ssS'PICKERING MARK R'
p302
(dp303
g3
L898L
sg4
g5
sg6
L1415488L
sg7
L31653L
sg8
L0L
sg9
g5
sg10
S'mark.pickering@enron.com'
p304
sg12
g5
sg13
g5
sg14
L728L
sg15
L400000L
sg16
L67L
sg17
g5
sg18
g5
sg19
L300000L
sg20
L28798L
sg21
L7L
sg22
L0L
sg23
g5
sg24
L655037L
sg25
L1386690L
sg26
L1L
sg27
L28798L
ssS'THE TRAVEL AGENCY IN THE PARK'
p305
(dp306
g3
g5
sg4
g5
sg6
L362096L
sg7
g5
sg8
L0L
sg9
g5
sg10
g5
sg12
g5
sg13
g5
sg14
g5
sg15
g5
sg16
g5
sg17
L362096L
sg18
g5
sg19
g5
sg20
g5
sg21
g5
sg22
g5
sg23
g5
sg24
g5
sg25
L362096L
sg26
g36
sg27
g5
ssS'NOLES JAMES L'
p307
(dp308
g3
g5
sg4
L774401L
sg6
L1143106L
sg7
g5
sg8
L0L
sg9
g5
sg10
g5
sg12
g5
sg13
L-94556L
sg14
g5
sg15
g5
sg16
g5
sg17
g5
sg18
g5
sg19
g5
sg20
L368705L
sg21
g5
sg22
g5
sg23
L463261L
sg24
g5
sg25
L774401L
sg26
g36
sg27
g5
ssS'KEAN STEVEN J'
p309
(dp310
g3
L12754L
sg4
g5
sg6
L7901164L
sg7
L41953L
sg8
L0L
sg9
g5
sg10
S'steven.kean@enron.com'
p311
sg12
L300000L
sg13
g5
sg14
L3639L
sg15
g5
sg16
L6759L
sg17
L1231L
sg18
g5
sg19
L1000000L
sg20
L6153642L
sg21
L140L
sg22
L387L
sg23
L4131594L
sg24
L404338L
sg25
L1747522L
sg26
L3L
sg27
L2022048L
ssS'FOWLER PEGGY'
p312
(dp313
g3
L517L
sg4
g5
sg6
L1884748L
sg7
g5
sg8
L0L
sg9
g5
sg10
S'kulvinder.fowler@enron.com'
p314
sg12
g5
sg13
g5
sg14
L10L
sg15
g5
sg16
L36L
sg17
g5
sg18
g5
sg19
g5
sg20
L1884748L
sg21
L0L
sg22
L0L
sg23
L560170L
sg24
g5
sg25
g5
sg26
g36
sg27
L1324578L
ssS'WASAFF GEORGE'
p315
(dp316
g3
L400L
sg4
L831299L
sg6
L3090822L
sg7
g5
sg8
L0L
sg9
L-583325L
sg10
S'george.wasaff@enron.com'
p317
sg12
L200000L
sg13
g5
sg14
L337L
sg15
g5
sg16
L30L
sg17
L1425L
sg18
g5
sg19
L325000L
sg20
L2056427L
sg21
L22L
sg22
L7L
sg23
L388167L
sg24
L259996L
sg25
L1034395L
sg26
L2L
sg27
L1668260L
ssS'WHITE JR THOMAS E'
p318
(dp319
g3
g5
sg4
g5
sg6
L17078482L
sg7
L81353L
sg8
L0L
sg9
g5
sg10
S'thomas.white@enron.com'
p320
sg12
g5
sg13
g5
sg14
g5
sg15
g5
sg16
g5
sg17
L1085463L
sg18
g5
sg19
L450000L
sg20
L15144123L
sg21
g5
sg22
g5
sg23
L13847074L
sg24
L317543L
sg25
L1934359L
sg26
L5L
sg27
L1297049L
ssS'CHRISTODOULOU DIOMEDES'
p321
(dp322
g3
g5
sg4
g5
sg6
L6077885L
sg7
g5
sg8
L0L
sg9
g5
sg10
S'diomedes.christodoulou@enron.com'
p323
sg12
g5
sg13
g5
sg14
g5
sg15
g5
sg16
g5
sg17
g5
sg18
g5
sg19
g5
sg20
L6077885L
sg21
g5
sg22
g5
sg23
L950730L
sg24
g5
sg25
g5
sg26
g36
sg27
L5127155L
ssS'ALLEN PHILLIP K'
p324
(dp325
g3
L2902L
sg4
L2869717L
sg6
L6213983L
sg7
L13868L
sg8
L0L
sg9
L-3081055L
sg10
S'phillip.allen@enron.com'
p326
sg12
L304805L
sg13
L-126027L
sg14
L1407L
sg15
g5
sg16
L2195L
sg17
L152L
sg18
g5
sg19
L4175000L
sg20
L1729541L
sg21
L47L
sg22
L65L
sg23
L126027L
sg24
L201955L
sg25
L4484442L
sg26
L21L
sg27
L1729541L
ssS'SHARP VICTORIA T'
p327
(dp328
g3
L3136L
sg4
L187469L
sg6
L2070647L
sg7
L116337L
sg8
L0L
sg9
g5
sg10
S'vicki.sharp@enron.com'
p329
sg12
L422158L
sg13
g5
sg14
L2477L
sg15
g5
sg16
L136L
sg17
L2401L
sg18
g5
sg19
L600000L
sg20
L494136L
sg21
L24L
sg22
L6L
sg23
L213063L
sg24
L248146L
sg25
L1576511L
sg26
L5L
sg27
L281073L
ssS'JAEDICKE ROBERT'
p330
(dp331
g3
g5
sg4
g5
sg6
L515500L
sg7
g5
sg8
L0L
sg9
L-25000L
sg10
g5
sg12
g5
sg13
L-44093L
sg14
g5
sg15
g5
sg16
g5
sg17
g5
sg18
L108750L
sg19
g5
sg20
L431750L
sg21
g5
sg22
g5
sg23
L44093L
sg24
g5
sg25
L83750L
sg26
g36
sg27
L431750L
ssS'WINOKUR JR. HERBERT S'
p332
(dp333
g3
g5
sg4
g5
sg6
L84992L
sg7
L1413L
sg8
L0L
sg9
L-25000L
sg10
g5
sg12
g5
sg13
g5
sg14
g5
sg15
g5
sg16
g5
sg17
g5
sg18
L108579L
sg19
g5
sg20
g5
sg21
g5
sg22
g5
sg23
g5
sg24
g5
sg25
L84992L
sg26
g36
sg27
g5
ssS'BROWN MICHAEL'
p334
(dp335
g3
L1486L
sg4
g5
sg6
L49288L
sg7
L49288L
sg8
L0L
sg9
g5
sg10
S'michael.brown@enron.com'
p336
sg12
g5
sg13
g5
sg14
L761L
sg15
g5
sg16
L41L
sg17
g5
sg18
g5
sg19
g5
sg20
g5
sg21
L13L
sg22
L1L
sg23
g5
sg24
g5
sg25
L49288L
sg26
g36
sg27
g5
ssS'BADUM JAMES P'
p337
(dp338
g3
g5
sg4
L178980L
sg6
L440283L
sg7
L3486L
sg8
L0L
sg9
g5
sg10
g5
sg12
g5
sg13
g5
sg14
g5
sg15
g5
sg16
g5
sg17
g5
sg18
g5
sg19
g5
sg20
L257817L
sg21
g5
sg22
g5
sg23
g5
sg24
g5
sg25
L182466L
sg26
g36
sg27
L257817L
ssS'HUGHES JAMES A'
p339
(dp340
g3
L719L
sg4
g5
sg6
L1118394L
sg7
g5
sg8
L0L
sg9
g5
sg10
S'james.hughes@enron.com'
p341
sg12
g5
sg13
g5
sg14
L589L
sg15
g5
sg16
L34L
sg17
g5
sg18
g5
sg19
g5
sg20
L1118394L
sg21
L35L
sg22
L5L
sg23
L363428L
sg24
g5
sg25
g5
sg26
g36
sg27
L754966L
ssS'REYNOLDS LAWRENCE'
p342
(dp343
g3
g5
sg4
L51365L
sg6
L4616366L
sg7
L8409L
sg8
L0L
sg9
L-200000L
sg10
g5
sg12
L156250L
sg13
L-140264L
sg14
g5
sg15
g5
sg16
g5
sg17
L202052L
sg18
g5
sg19
L100000L
sg20
L4221891L
sg21
g5
sg22
g5
sg23
L201483L
sg24
L76399L
sg25
L394475L
sg26
L4L
sg27
L4160672L
ssS'DIMICHELE RICHARD G'
p344
(dp345
g3
g5
sg4
g5
sg6
L10685933L
sg7
L35812L
sg8
L0L
sg9
g5
sg10
S'richard.dimichele@enron.com'
p346
sg12
L694862L
sg13
g5
sg14
g5
sg15
g5
sg16
g5
sg17
L374689L
sg18
g5
sg19
L1000000L
sg20
L8317782L
sg21
g5
sg22
g5
sg23
L126027L
sg24
L262788L
sg25
L2368151L
sg26
L8L
sg27
L8191755L
ssS'BHATNAGAR SANJAY'
p347
(dp348
g3
L523L
sg4
g5
sg6
L15456290L
sg7
g5
sg8
L0L
sg9
g5
sg10
S'sanjay.bhatnagar@enron.com'
p349
sg12
g5
sg13
L15456290L
sg14
L463L
sg15
g5
sg16
L29L
sg17
L137864L
sg18
L137864L
sg19
g5
sS'total_stock_value'
p350
S'NaN'
p351
sg21
L0L
sg22
L1L
sg23
L-2604490L
sg24
g5
sg25
L15456290L
sg26
g36
sg27
L2604490L
ssS'CARTER REBECCA C'
p352
(dp353
g3
L312L
sg4
g5
sg6
L477557L
sg7
g5
sg8
L0L
sg9
L-159792L
sg10
S'rebecca.carter@enron.com'
p354
sg12
L75000L
sg13
L-307301L
sg14
L196L
sg15
g5
sg16
L15L
sg17
L540L
sg18
g5
sg19
L300000L
sg20
g5
sg21
L29L
sg22
L7L
sg23
L307301L
sg24
L261809L
sg25
L477557L
sg26
L0L
sg27
g5
ssS'BUCHANAN HAROLD G'
p355
(dp356
g3
L1088L
sg4
g5
sg6
L2069142L
sg7
L600L
sg8
L0L
sg9
g5
sg10
S'john.buchanan@enron.com'
p357
sg12
L304805L
sg13
g5
sg14
L23L
sg15
g5
sg16
L125L
sg17
L1215L
sg18
g5
sg19
L500000L
sg20
L1014505L
sg21
L0L
sg22
L0L
sg23
L189041L
sg24
L248017L
sg25
L1054637L
sg26
L3L
sg27
L825464L
ssS'YEAP SOON'
p358
(dp359
g3
g5
sg4
g5
sg6
L247855L
sg7
L55097L
sg8
L0L
sg9
g5
sg10
g5
sg12
g5
sg13
g5
sg14
g5
sg15
g5
sg16
g5
sg17
g5
sg18
g5
sg19
g5
sg20
L192758L
sg21
g5
sg22
g5
sg23
g5
sg24
g5
sg25
L55097L
sg26
g36
sg27
L192758L
ssS'MURRAY JULIA H'
p360
(dp361
g3
L2192L
sg4
g5
sg6
L1409655L
sg7
L57580L
sg8
L0L
sg9
g5
sg10
S'julia.murray@enron.com'
p362
sg12
L125000L
sg13
g5
sg14
L395L
sg15
g5
sg16
L45L
sg17
L330L
sg18
g5
sg19
L400000L
sg20
L597461L
sg21
L11L
sg22
L2L
sg23
L196983L
sg24
L229284L
sg25
L812194L
sg26
L2L
sg27
L400478L
ssS'GARLAND C KEVIN'
p363
(dp364
g3
L209L
sg4
g5
sg6
L2462622L
sg7
L48405L
sg8
L0L
sg9
g5
sg10
S'kevin.garland@enron.com'
p365
sg12
L375304L
sg13
g5
sg14
L178L
sg15
g5
sg16
L44L
sg17
L60814L
sg18
g5
sg19
L850000L
sg20
L896153L
sg21
L10L
sg22
L27L
sg23
L259907L
sg24
L231946L
sg25
L1566469L
sg26
L5L
sg27
L636246L
ssS'DODSON KEITH'
p366
(dp367
g3
L176L
sg4
g5
sg6
L319941L
sg7
L28164L
sg8
L0L
sg9
g5
sg10
S'keith.dodson@enron.com'
p368
sg12
g5
sg13
g5
sg14
L114L
sg15
g5
sg16
L14L
sg17
L774L
sg18
g5
sg19
L70000L
sg20
g5
sg21
L10L
sg22
L3L
sg23
g5
sg24
L221003L
sg25
L319941L
sg26
L0L
sg27
g5
ssS'YEAGER F SCOTT'
p369
(dp370
g3
g5
sg4
g5
sg6
L12245058L
sg7
L53947L
sg8
L1L
sg9
g5
sg10
S'scott.yeager@enron.com'
p371
sg12
g5
sg13
g5
sg14
g5
sg15
g5
sg16
g5
sg17
L147950L
sg18
g5
sg19
g5
sg20
L11884758L
sg21
g5
sg22
g5
sg23
L3576206L
sg24
L158403L
sg25
L360300L
sg26
L1L
sg27
L8308552L
ssS'HIRKO JOSEPH'
p372
(dp373
g3
g5
sg4
L10259L
sg6
L30857157L
sg7
L77978L
sg8
L1L
sg9
g5
sg10
S'joe.hirko@enron.com'
p374
sg12
g5
sg13
g5
sg14
g5
sg15
g5
sg16
g5
sg17
L2856L
sg18
g5
sg19
g5
sg20
L30766064L
sg21
g5
sg22
g5
sg23
g5
sg24
g5
sg25
L91093L
sg26
g36
sg27
L30766064L
ssS'DIETRICH JANET R'
p375
(dp376
g3
L2572L
sg4
g5
sg6
L3275551L
sg7
L3475L
sg8
L0L
sg9
g5
sg10
S'janet.dietrich@enron.com'
p377
sg12
L556416L
sg13
g5
sg14
L1902L
sg15
g5
sg16
L63L
sg17
L473L
sg18
g5
sg19
L600000L
sg20
L1865087L
sg21
L305L
sg22
L14L
sg23
L315068L
sg24
L250100L
sg25
L1410464L
sg26
L4L
sg27
L1550019L
ssS'DERRICK JR. JAMES V'
p378
(dp379
g3
L2181L
sg4
g5
sg6
L9382894L
sg7
L51124L
sg8
L0L
sg9
L-1284000L
sg10
S'james.derrick@enron.com'
p380
sg12
L484000L
sg13
L-1787380L
sg14
L1401L
sg15
g5
sg16
L909L
sg17
L7482L
sg18
g5
sg19
L800000L
sg20
L8831913L
sg21
L64L
sg22
L20L
sg23
L1787380L
sg24
L492375L
sg25
L550981L
sg26
L0L
sg27
L8831913L
ssS'FREVERT MARK A'
p381
(dp382
g3
L3275L
sg4
L6426990L
sg6
L31874715L
sg7
L86987L
sg8
L0L
sg9
L-3367011L
sg10
S'mark.frevert@enron.com'
p383
sg12
L1617011L
sg13
g5
sg14
L2979L
sg15
L2000000L
sg16
L21L
sg17
L7427621L
sg18
g5
sg19
L2000000L
sg20
L14622185L
sg21
L242L
sg22
L6L
sg23
L4188667L
sg24
L1060932L
sg25
L17252530L
sg26
L15L
sg27
L10433518L
ssS'PAI LOU L'
p384
(dp385
g3
g5
sg4
g5
sg6
L26941313L
sg7
L32047L
sg8
L0L
sg9
g5
sg10
S'lou.pai@enron.com'
p386
sg12
g5
sg13
g5
sg14
g5
sg15
g5
sg16
g5
sg17
L1829457L
sg18
g5
sg19
L1000000L
sg20
L23817930L
sg21
g5
sg22
g5
sg23
L8453763L
sg24
L261879L
sg25
L3123383L
sg26
L10L
sg27
L15364167L
ssS'BAY FRANKLIN R'
p387
(dp388
g3
g5
sg4
L260455L
sg6
L890710L
sg7
L129142L
sg8
L0L
sg9
L-201641L
sg10
S'frank.bay@enron.com'
p389
sg12
g5
sg13
L-82782L
sg14
g5
sg15
g5
sg16
g5
sg17
L69L
sg18
g5
sg19
L400000L
sg20
L63014L
sg21
g5
sg22
g5
sg23
L145796L
sg24
L239671L
sg25
L827696L
sg26
L2L
sg27
g5
ssS'HAYSLETT RODERICK J'
p390
(dp391
g3
L2649L
sg4
g5
sg6
L346663L
sg7
g5
sg8
L0L
sg9
g5
sg10
S'rod.hayslett@enron.com'
p392
sg12
g5
sg13
g5
sg14
L571L
sg15
g5
sg16
L1061L
sg17
g5
sg18
g5
sg19
g5
sg20
L346663L
sg21
L35L
sg22
L38L
sg23
L346663L
sg24
g5
sg25
g5
sg26
g36
sg27
g5
ssS'FUGH JOHN L'
p393
(dp394
g3
g5
sg4
L50591L
sg6
L226969L
sg7
g5
sg8
L0L
sg9
g5
sg10
g5
sg12
g5
sg13
g5
sg14
g5
sg15
g5
sg16
g5
sg17
g5
sg18
g5
sg19
g5
sg20
L176378L
sg21
g5
sg22
g5
sg23
g5
sg24
g5
sg25
L50591L
sg26
g36
sg27
L176378L
ssS'FALLON JAMES B'
p395
(dp396
g3
L1755L
sg4
g5
sg6
L6008739L
sg7
L95924L
sg8
L0L
sg9
g5
sg10
S'jim.fallon@enron.com'
p397
sg12
L374347L
sg13
g5
sg14
L1604L
sg15
g5
sg16
L75L
sg17
L401481L
sg18
g5
sg19
L2500000L
sg20
L2332399L
sg21
L42L
sg22
L37L
sg23
L1392142L
sg24
L304588L
sg25
L3676340L
sg26
L11L
sg27
L940257L
ssS'KOENIG MARK E'
p398
(dp399
g3
L2374L
sg4
g5
sg6
L3507476L
sg7
L127017L
sg8
L1L
sg9
g5
sg10
S'mark.koenig@enron.com'
p400
sg12
L300000L
sg13
g5
sg14
L2271L
sg15
g5
sg16
L61L
sg17
L150458L
sg18
g5
sg19
L700000L
sg20
L1920055L
sg21
L53L
sg22
L15L
sg23
L1248318L
sg24
L309946L
sg25
L1587421L
sg26
L4L
sg27
L671737L
ssS'SAVAGE FRANK'
p401
(dp402
g3
g5
sg4
g5
sg6
L3750L
sg7
g5
sg8
L0L
sg9
L-121284L
sg10
g5
sg12
g5
sg13
g5
sg14
g5
sg15
g5
sg16
g5
sg17
g5
sg18
L125034L
sg19
g5
sg20
g5
sg21
g5
sg22
g5
sg23
g5
sg24
g5
sg25
L3750L
sg26
g36
sg27
g5
ssS'IZZO LAWRENCE L'
p403
(dp404
g3
L496L
sg4
g5
sg6
L7799576L
sg7
L28093L
sg8
L0L
sg9
g5
sg10
S'larry.izzo@enron.com'
p405
sg12
L312500L
sg13
g5
sg14
L437L
sg15
g5
sg16
L19L
sg17
L1553729L
sg18
g5
sg19
g5
sg20
L5819980L
sg21
L28L
sg22
L5L
sg23
L3654808L
sg24
L85274L
sg25
L1979596L
sg26
L22L
sg27
L2165172L
ssS'TILNEY ELIZABETH A'
p406
(dp407
g3
L460L
sg4
g5
sg6
L1567435L
sg7
g5
sg8
L0L
sg9
L-575000L
sg10
S'elizabeth.tilney@enron.com'
p408
sg12
L275000L
sg13
g5
sg14
L379L
sg15
g5
sg16
L19L
sg17
L152055L
sg18
g5
sg19
L300000L
sg20
L1168042L
sg21
L10L
sg22
L11L
sg23
L576792L
sg24
L247338L
sg25
L399393L
sg26
L0L
sg27
L591250L
ssS'MARTIN AMANDA K'
p409
(dp410
g3
L1522L
sg4
L85430L
sg6
L10477322L
sg7
L8211L
sg8
L0L
sg9
g5
sg10
S'a..martin@enron.com'
p411
sg12
L5145434L
sg13
g5
sg14
L477L
sg15
g5
sg16
L230L
sg17
L2818454L
sg18
g5
sg19
g5
sg20
L2070306L
sg21
L8L
sg22
L0L
sg23
g5
sg24
L349487L
sg25
L8407016L
sg26
L23L
sg27
L2070306L
ssS'BUY RICHARD B'
p412
(dp413
g3
L3523L
sg4
L649584L
sg6
L5800172L
sg7
g5
sg8
L0L
sg9
L-694862L
sg10
S'rick.buy@enron.com'
p414
sg12
L769862L
sg13
g5
sg14
L2333L
sg15
g5
sg16
L1053L
sg17
L400572L
sg18
g5
sg19
L900000L
sg20
L3444470L
sg21
L156L
sg22
L71L
sg23
L901657L
sg24
L330546L
sg25
L2355702L
sg26
L6L
sg27
L2542813L
ssS'GRAMM WENDY L'
p415
(dp416
g3
g5
sg4
g5
sg6
L119292L
sg7
g5
sg8
L0L
sg9
g5
sg10
g5
sg12
g5
sg13
g5
sg14
g5
sg15
g5
sg16
g5
sg17
g5
sg18
L119292L
sg19
g5
sg20
g5
sg21
g5
sg22
g5
sg23
g5
sg24
g5
sg25
L119292L
sg26
g36
sg27
g5
ssS'CAUSEY RICHARD A'
p417
(dp418
g3
L1892L
sg4
g5
sg6
L4370821L
sg7
L30674L
sg8
L1L
sg9
L-235000L
sg10
S'richard.causey@enron.com'
p419
sg12
L350000L
sg13
g5
sg14
L1585L
sg15
g5
sg16
L49L
sg17
L307895L
sg18
g5
sg19
L1000000L
sg20
L2502063L
sg21
L58L
sg22
L12L
sg23
L2502063L
sg24
L415189L
sg25
L1868758L
sg26
L3L
sg27
g5
ssS'TAYLOR MITCHELL S'
p420
(dp421
g3
L533L
sg4
L227449L
sg6
L4837711L
sg7
g5
sg8
L0L
sg9
g5
sg10
S'mitchell.taylor@enron.com'
p422
sg12
g5
sg13
g5
sg14
L300L
sg15
g5
sg16
L29L
sg17
g5
sg18
g5
sg19
L600000L
sg20
L3745048L
sg21
L0L
sg22
L0L
sg23
L563798L
sg24
L265214L
sg25
L1092663L
sg26
L3L
sg27
L3181250L
ssS'DONAHUE JR JEFFREY M'
p423
(dp424
g3
L865L
sg4
g5
sg6
L1956748L
sg7
L96268L
sg8
L0L
sg9
L-300000L
sg10
S'jeff.donahue@enron.com'
p425
sg12
g5
sg13
g5
sg14
L772L
sg15
g5
sg16
L22L
sg17
L891L
sg18
g5
sg19
L800000L
sg20
L1080988L
sg21
L188L
sg22
L11L
sg23
L315068L
sg24
L278601L
sg25
L875760L
sg26
L2L
sg27
L765920L
ssS'GLISAN JR BEN F'
p426
(dp427
g3
L873L
sg4
g5
sg6
L2050830L
sg7
L125978L
sg8
L1L
sg9
g5
sg10
S'ben.glisan@enron.com'
p428
sg12
L71023L
sg13
g5
sg14
L874L
sg15
g5
sg16
L16L
sg17
L200308L
sg18
g5
sg19
L600000L
sg20
L778546L
sg21
L52L
sg22
L6L
sg23
L393818L
sg24
L274975L
sg25
L1272284L
sg26
L3L
sg27
L384728L
ss.