(lp0
S'poi'
p1
aS'salary'
p2
aS'deferral_payments'
p3
aS'loan_advances'
p4
aS'bonus'
p5
aS'deferred_income'
p6
aS'expenses'
p7
aS'long_term_incentive'
p8
aS'other'
p9
aS'total_payments'
p10
aS'director_fees'
p11
aS'exercised_stock_options'
p12
aS'total_stock_value'
p13
aS'restricted_stock'
p14
aS'restricted_stock_deferred'
p15
aS'to_messages'
p16
aS'combined_pay_and_stock'
p17
aS'from_poi_to_this_person'
p18
aS'from_messages'
p19
aS'from_this_person_to_poi'
p20
aS'shared_receipt_with_poi'
p21
aS'proportion_pay_to_salary'
p22
a.